target datalayout = "e-m:e-p270:32:32-p271:32:32-p272:64:64-i64:64-i128:128-f80:128-n8:16:32:64-S128"
target triple = "x86_64-pc-linux-gnu"

%struct.Dar_Lib_t_ = type { ptr, i32, i32, [222 x i32], [222 x ptr], ptr, i32, ptr, [222 x ptr], ptr, [222 x ptr], ptr, [222 x ptr], [222 x i32], [222 x ptr], ptr, i32, i32, i32, [222 x i32], [222 x ptr], ptr, i32, [222 x i32], [222 x ptr], ptr, i32, ptr, i32, ptr, ptr, ptr, ptr, ptr }
%struct.Dar_LibObj_t_ = type { i64 }
%struct.Vec_Int_t_ = type { i32, i32, ptr }
%struct.Dar_LibDat_t_ = type { %union.anon, i32, i32, float, i8, [3 x i8] }
%union.anon = type { ptr }

@s_DarLib = internal global ptr null, align 8

; Function Attrs: nounwind uwtable
define internal ptr @Dar_LibObj(ptr noundef %0, i32 noundef %1) #0 {
  %3 = alloca ptr, align 8
  %4 = alloca i32, align 4
  store ptr %0, ptr %3, align 8
  store i32 %1, ptr %4, align 4
  %5 = load ptr, ptr %3, align 8
  %6 = getelementptr inbounds %struct.Dar_Lib_t_, ptr %5, i32 0, i32 0
  %7 = load ptr, ptr %6, align 8
  %8 = load i32, ptr %4, align 4
  %9 = sext i32 %8 to i64
  %10 = getelementptr inbounds %struct.Dar_LibObj_t_, ptr %7, i64 %9
  ret ptr %10
}

; Function Attrs: nounwind uwtable
define internal i32 @Vec_IntEntry(ptr noundef %0, i32 noundef %1) #0 {
  %3 = alloca ptr, align 8
  %4 = alloca i32, align 4
  store ptr %0, ptr %3, align 8
  store i32 %1, ptr %4, align 4
  %5 = load ptr, ptr %3, align 8
  %6 = getelementptr inbounds %struct.Vec_Int_t_, ptr %5, i32 0, i32 2
  %7 = load ptr, ptr %6, align 8
  %8 = load i32, ptr %4, align 4
  %9 = sext i32 %8 to i64
  %10 = getelementptr inbounds i32, ptr %7, i64 %9
  %11 = load i32, ptr %10, align 4
  ret i32 %11
}

; Function Attrs: nounwind uwtable
define internal i32 @Vec_IntSize(ptr noundef %0) #0 {
  %2 = alloca ptr, align 8
  store ptr %0, ptr %2, align 8
  %3 = load ptr, ptr %2, align 8
  %4 = getelementptr inbounds %struct.Vec_Int_t_, ptr %3, i32 0, i32 1
  %5 = load i32, ptr %4, align 4
  ret i32 %5
}

; Function Attrs: nounwind uwtable
define i32 @Dar2_LibBuildBest(ptr noundef %0, ptr noundef %1, i32 noundef %2) #0 {
  %4 = alloca ptr, align 8
  %5 = alloca ptr, align 8
  %6 = alloca i32, align 4
  %7 = alloca i32, align 4
  %8 = alloca i32, align 4
  %9 = alloca i32, align 4
  store ptr %0, ptr %4, align 8
  store ptr %1, ptr %5, align 8
  store i32 %2, ptr %6, align 4
  store i32 4, ptr %9, align 4
  store i32 0, ptr %7, align 4
  br label %10

10:                                               ; preds = %30, %3
  %11 = load i32, ptr %7, align 4
  %12 = load ptr, ptr %5, align 8
  %13 = call i32 @Vec_IntSize(ptr noundef %12)
  %14 = icmp slt i32 %11, %13
  br i1 %14, label %15, label %19

15:                                               ; preds = %10
  %16 = load ptr, ptr %5, align 8
  %17 = load i32, ptr %7, align 4
  %18 = call i32 @Vec_IntEntry(ptr noundef %16, i32 noundef %17)
  store i32 %18, ptr %8, align 4
  br label %19

19:                                               ; preds = %15, %10
  %20 = phi i1 [ false, %10 ], [ true, %15 ]
  br i1 %20, label %21, label %33

21:                                               ; preds = %19
  %22 = load i32, ptr %8, align 4
  %23 = load ptr, ptr @s_DarLib, align 8
  %24 = getelementptr inbounds %struct.Dar_Lib_t_, ptr %23, i32 0, i32 27
  %25 = load ptr, ptr %24, align 8
  %26 = load i32, ptr %7, align 4
  %27 = sext i32 %26 to i64
  %28 = getelementptr inbounds %struct.Dar_LibDat_t_, ptr %25, i64 %27
  %29 = getelementptr inbounds %struct.Dar_LibDat_t_, ptr %28, i32 0, i32 0
  store i32 %22, ptr %29, align 8
  br label %30

30:                                               ; preds = %21
  %31 = load i32, ptr %7, align 4
  %32 = add nsw i32 %31, 1
  store i32 %32, ptr %7, align 4
  br label %10, !llvm.loop !54

33:                                               ; preds = %19
  %34 = load ptr, ptr @s_DarLib, align 8
  %35 = load i32, ptr %6, align 4
  %36 = call ptr @Dar_LibObj(ptr noundef %34, i32 noundef %35)
  call void @Dar2_LibBuildClear_rec(ptr noundef %36, ptr noundef %9)
  %37 = load ptr, ptr %4, align 8
  %38 = load ptr, ptr @s_DarLib, align 8
  %39 = load i32, ptr %6, align 4
  %40 = call ptr @Dar_LibObj(ptr noundef %38, i32 noundef %39)
  %41 = call i32 @Dar2_LibBuildBest_rec(ptr noundef %37, ptr noundef %40)
  ret i32 %41
}