; Function Attrs: nounwind uwtable
define i32 @Dar2_LibBuildBest(ptr noundef %0, ptr noundef readonly captures(none) %1, i32 noundef %2) local_unnamed_addr #0 {
  %4 = alloca i32, align 4
  store i32 4, ptr %4, align 4
  %5 = getelementptr i8, ptr %1, i64 4
  %.val1012 = load i32, ptr %5, align 4
  %6 = icmp sgt i32 %.val1012, 0
  %.pre = load ptr, ptr @s_DarLib, align 8
  br i1 %6, label %.lr.ph, label %.critedge

.lr.ph:                                           ; preds = %3
  %7 = getelementptr i8, ptr %1, i64 8
  %8 = getelementptr inbounds nuw i8, ptr %.pre, i64 16096
  br label %9

9:                                                ; preds = %.lr.ph, %9
  %indvars.iv = phi i64 [ 0, %.lr.ph ], [ %indvars.iv.next, %9 ]
  %.val11 = load ptr, ptr %7, align 8
  %10 = getelementptr inbounds nuw i32, ptr %.val11, i64 %indvars.iv
  %11 = load i32, ptr %10, align 4
  %12 = load ptr, ptr %8, align 8
  %13 = getelementptr inbounds nuw %struct.Dar_LibDat_t_, ptr %12, i64 %indvars.iv
  store i32 %11, ptr %13, align 8
  %indvars.iv.next = add nuw nsw i64 %indvars.iv, 1
  %.val10 = load i32, ptr %5, align 4
  %14 = sext i32 %.val10 to i64
  %15 = icmp slt i64 %indvars.iv.next, %14
  br i1 %15, label %9, label %.critedge, !llvm.loop !46

.critedge:                                        ; preds = %9, %3
  %.val9 = load ptr, ptr %.pre, align 8
  %16 = sext i32 %2 to i64
  %17 = getelementptr inbounds %struct.Dar_LibObj_t_, ptr %.val9, i64 %16
  call void @Dar2_LibBuildClear_rec(ptr noundef %17, ptr noundef nonnull %4)
  %.val = load ptr, ptr %.pre, align 8
  %18 = getelementptr inbounds %struct.Dar_LibObj_t_, ptr %.val, i64 %16
  %19 = tail call i32 @Dar2_LibBuildBest_rec(ptr noundef %0, ptr noundef %18)
  ret i32 %19
}